; Function Attrs: nounwind uwtable
define zeroext range(i8 0, 2) i8 @l_Std_Range_forIn_x27_loop___at___private_Lean_Meta_FunInfo_0__Lean_Meta_getFunInfoAux___spec__3___lambda__2(ptr noundef %0, ptr noundef %1) local_unnamed_addr #1 {
  %3 = tail call zeroext i8 @l_Lean_Expr_isFVar(ptr noundef %1) #5
  %4 = icmp eq i8 %3, 0
  br i1 %4, label %lean_dec.exit, label %5

5:                                                ; preds = %2
  %6 = tail call ptr @l_Lean_Expr_fvarId_x21(ptr noundef %1) #5
  %7 = tail call ptr @l_Lean_RBNode_findCore___at___private_Lean_Meta_FunInfo_0__Lean_Meta_getFunInfoAux___spec__2(ptr noundef %0, ptr noundef %6)
  %8 = ptrtoint ptr %6 to i64
  %9 = and i64 %8, 1
  %.not = icmp eq i64 %9, 0
  br i1 %.not, label %10, label %lean_dec.exit11

10:                                               ; preds = %5
  %11 = load i32, ptr %6, align 4, !tbaa !4
  %12 = icmp sgt i32 %11, 1
  br i1 %12, label %13, label %15, !prof !11

13:                                               ; preds = %10
  %14 = add nsw i32 %11, -1
  store i32 %14, ptr %6, align 4, !tbaa !4
  br label %lean_dec.exit11

15:                                               ; preds = %10
  %.not.i = icmp eq i32 %11, 0
  br i1 %.not.i, label %lean_dec.exit11, label %16

16:                                               ; preds = %15
  tail call void @lean_dec_ref_cold(ptr noundef nonnull %6) #5
  br label %lean_dec.exit11

lean_dec.exit11:                                  ; preds = %16, %15, %13, %5
  %17 = ptrtoint ptr %7 to i64
  %18 = and i64 %17, 1
  %.not.i14 = icmp eq i64 %18, 0
  br i1 %.not.i14, label %lean_obj_tag.exit.thread, label %lean_obj_tag.exit

lean_obj_tag.exit:                                ; preds = %lean_dec.exit11
  %19 = and i64 %17, 8589934590
  %20 = icmp ne i64 %19, 0
  %spec.select = zext i1 %20 to i8
  br label %lean_dec.exit

lean_obj_tag.exit.thread:                         ; preds = %lean_dec.exit11
  %21 = getelementptr i8, ptr %7, i64 4
  %.val.i = load i32, ptr %21, align 4
  %22 = icmp ult i32 %.val.i, 16777216
  br i1 %22, label %lean_dec.exit, label %.thread

.thread:                                          ; preds = %lean_obj_tag.exit.thread
  %23 = load i32, ptr %7, align 4, !tbaa !4
  %24 = icmp sgt i32 %23, 1
  br i1 %24, label %25, label %27, !prof !11

25:                                               ; preds = %.thread
  %26 = add nsw i32 %23, -1
  store i32 %26, ptr %7, align 4, !tbaa !4
  br label %lean_dec.exit

27:                                               ; preds = %.thread
  %.not.i12 = icmp eq i32 %23, 0
  br i1 %.not.i12, label %lean_dec.exit, label %28

28:                                               ; preds = %27
  tail call void @lean_dec_ref_cold(ptr noundef nonnull %7) #5
  br label %lean_dec.exit

lean_dec.exit:                                    ; preds = %lean_obj_tag.exit, %25, %27, %28, %lean_obj_tag.exit.thread, %2
  %.0 = phi i8 [ 0, %2 ], [ 0, %lean_obj_tag.exit.thread ], [ 1, %28 ], [ 1, %27 ], [ 1, %25 ], [ %spec.select, %lean_obj_tag.exit ]
  ret i8 %.0
}